Certificate:
    Data:
        Version: 3 (0x2)
        Serial Number: 10 (0xa)
    Signature Algorithm: sha256WithRSAEncryption
        Issuer: CN=BBXN INT SV1
        Validity
            Not Before: Nov  6 02:54:46 2017 GMT
            Not After : Nov  4 02:54:46 2027 GMT
        Subject: CN=tgw.sv1a.bbxn.us
        Subject Public Key Info:
            Public Key Algorithm: rsaEncryption
                Public-Key: (2048 bit)
                Modulus:
                    00:ce:39:ce:01:eb:7c:30:28:1c:d7:c2:a1:d4:1c:
                    a4:54:e5:24:7a:d3:5d:83:0e:a9:f8:ad:4f:11:73:
                    ce:5c:10:a6:32:60:d7:af:1a:69:98:e6:59:ef:30:
                    00:3f:d7:7b:18:1b:b8:8e:19:c2:8d:2b:96:71:19:
                    1f:81:89:b5:31:03:f9:46:dd:5f:d5:07:88:33:25:
                    1c:73:2b:8b:97:a2:1b:ca:95:f6:d4:7e:91:39:ec:
                    33:f8:12:a5:ea:43:f8:1f:c1:5a:b4:e1:bc:4b:de:
                    b7:2f:69:f7:9a:5c:38:63:da:58:df:5e:02:6b:f7:
                    c1:7c:da:d5:1f:7d:8c:7c:68:a7:89:22:98:1b:de:
                    00:2a:98:fc:a8:c5:e3:d2:d1:be:40:d9:4c:fe:c7:
                    8a:5f:44:83:a6:52:ce:20:c2:0f:a8:df:83:f9:a2:
                    1a:10:85:29:63:9c:a7:96:e7:e1:15:61:c9:15:15:
                    83:a8:63:2b:9c:d8:cd:87:da:43:c6:fb:46:ee:36:
                    36:5f:99:15:a3:48:d5:ac:ed:8e:62:b8:d9:86:43:
                    b0:32:f8:60:ae:b4:52:af:f3:0f:34:a4:2d:d3:b5:
                    fe:c9:92:32:40:5d:ad:f3:b4:43:2d:1b:7a:79:4f:
                    e2:f2:ba:b6:91:43:27:91:ae:c3:7a:ba:0e:4d:bb:
                    ae:b7
                Exponent: 65537 (0x10001)
        X509v3 extensions:
            X509v3 Basic Constraints: 
                CA:FALSE
            X509v3 Subject Key Identifier: 
                9C:2B:67:6E:70:0F:8F:C3:35:6F:CD:7B:61:66:79:60:B0:56:3A:27
            X509v3 Authority Key Identifier: 
                keyid:56:B3:0A:A5:E4:86:2B:28:31:08:39:6C:FE:91:9C:CD:E3:63:B9:13
                DirName:/CN=BBXN INT SV1
                serial:C8:D8:D2:05:95:23:EB:F2

            X509v3 Extended Key Usage: 
                TLS Web Server Authentication
            X509v3 Key Usage: 
                Digital Signature, Key Encipherment
            X509v3 Subject Alternative Name: 
                DNS:tgw.sv1a.bbxn.us, DNS:tgw.sv1a.pln.bbxn.us, IP Address:172.16.52.9
    Signature Algorithm: sha256WithRSAEncryption
         a5:fc:84:5e:7c:42:a4:21:fa:1a:a3:20:18:b5:6e:2a:d8:c8:
         2e:af:e0:17:57:ed:26:1c:1e:d8:3d:2b:18:f2:5e:31:64:f3:
         0a:c0:46:0a:67:4d:a0:a7:6f:bd:e0:a7:de:f4:0a:4e:d7:e2:
         3c:26:59:35:09:26:04:17:69:0e:50:48:39:3b:5b:9d:a4:d1:
         57:c0:08:97:32:60:70:05:03:bb:30:ca:4f:94:2d:7f:f1:68:
         85:ba:a9:32:1f:d6:6e:18:d7:6e:6f:a6:85:bc:2e:52:c5:c8:
         5e:c2:58:8b:81:18:47:c4:6c:75:39:c2:4d:01:fe:f2:5c:b0:
         71:f1:4b:77:ba:37:52:58:9e:78:46:1c:b2:42:77:07:c1:53:
         13:6a:7d:6c:cf:0c:75:cd:f8:72:fe:db:a1:20:58:eb:bb:e3:
         c3:ee:e2:47:41:d8:7a:8a:5f:02:88:15:cf:95:d2:dc:c7:49:
         5b:5d:70:ae:8e:73:34:7f:b2:be:c2:2d:77:f0:16:a3:0d:2f:
         32:58:5d:61:5d:ab:f4:9e:31:77:7d:ff:92:db:e8:13:ed:67:
         bf:c7:5c:de:53:fd:0e:c6:a5:7a:bd:08:5e:26:c4:18:5c:48:
         54:fc:bb:be:f0:f5:b9:a0:e3:38:9a:cf:61:fa:28:99:02:4f:
         06:31:18:56
-----BEGIN CERTIFICATE-----
MIIDfzCCAmegAwIBAgIBCjANBgkqhkiG9w0BAQsFADAXMRUwEwYDVQQDDAxCQlhO
IElOVCBTVjEwHhcNMTcxMTA2MDI1NDQ2WhcNMjcxMTA0MDI1NDQ2WjAbMRkwFwYD
VQQDDBB0Z3cuc3YxYS5iYnhuLnVzMIIBIjANBgkqhkiG9w0BAQEFAAOCAQ8AMIIB
CgKCAQEAzjnOAet8MCgc18Kh1BykVOUketNdgw6p+K1PEXPOXBCmMmDXrxppmOZZ
7zAAP9d7GBu4jhnCjSuWcRkfgYm1MQP5Rt1f1QeIMyUccyuLl6IbypX21H6ROewz
+BKl6kP4H8FatOG8S963L2n3mlw4Y9pY314Ca/fBfNrVH32MfGiniSKYG94AKpj8
qMXj0tG+QNlM/seKX0SDplLOIMIPqN+D+aIaEIUpY5ynlufhFWHJFRWDqGMrnNjN
h9pDxvtG7jY2X5kVo0jVrO2OYrjZhkOwMvhgrrRSr/MPNKQt07X+yZIyQF2t87RD
LRt6eU/i8rq2kUMnka7DeroOTbuutwIDAQABo4HRMIHOMAkGA1UdEwQCMAAwHQYD
VR0OBBYEFJwrZ25wD4/DNW/Ne2FmeWCwVjonMEcGA1UdIwRAMD6AFFazCqXkhiso
MQg5bP6RnM3jY7kToRukGTAXMRUwEwYDVQQDDAxCQlhOIElOVCBTVjGCCQDI2NIF
lSPr8jATBgNVHSUEDDAKBggrBgEFBQcDATALBgNVHQ8EBAMCBaAwNwYDVR0RBDAw
LoIQdGd3LnN2MWEuYmJ4bi51c4IUdGd3LnN2MWEucGxuLmJieG4udXOHBKwQNAkw
DQYJKoZIhvcNAQELBQADggEBAKX8hF58QqQh+hqjIBi1birYyC6v4BdX7SYcHtg9
KxjyXjFk8wrARgpnTaCnb73gp970Ck7X4jwmWTUJJgQXaQ5QSDk7W52k0VfACJcy
YHAFA7swyk+ULX/xaIW6qTIf1m4Y125vpoW8LlLFyF7CWIuBGEfEbHU5wk0B/vJc
sHHxS3e6N1JYnnhGHLJCdwfBUxNqfWzPDHXN+HL+26EgWOu748Pu4kdB2HqKXwKI
Fc+V0tzHSVtdcK6OczR/sr7CLXfwFqMNLzJYXWFdq/SeMXd9/5Lb6BPtZ7/HXN5T
/Q7GpXq9CF4mxBhcSFT8u77w9bmg4ziaz2H6KJkCTwYxGFY=
-----END CERTIFICATE-----
