Certificate:
    Data:
        Version: 3 (0x2)
        Serial Number: 11 (0xb)
    Signature Algorithm: sha256WithRSAEncryption
        Issuer: CN=BBXN INT SV1
        Validity
            Not Before: Dec  3 01:53:00 2017 GMT
            Not After : Dec  1 01:53:00 2027 GMT
        Subject: CN=tgw.sv2.bbxn.us
        Subject Public Key Info:
            Public Key Algorithm: rsaEncryption
                Public-Key: (2048 bit)
                Modulus:
                    00:e5:b2:03:05:52:52:bd:dd:b3:56:f8:4f:51:42:
                    3a:0d:90:65:41:c1:68:a5:2f:af:75:74:fe:cd:09:
                    fa:45:ed:be:e5:2d:57:de:d8:a6:34:95:11:dc:92:
                    be:36:85:c6:66:10:d3:48:5e:18:f6:5b:c2:0c:4b:
                    03:30:e8:fb:ac:58:ac:25:1a:f4:58:7b:11:5c:58:
                    d0:19:9b:bf:5c:83:90:dc:1a:f5:d6:6c:31:ec:43:
                    54:c7:eb:ba:98:5a:78:c6:62:9f:06:c1:c9:d2:0e:
                    8e:b2:ca:4d:79:c6:ff:81:3d:78:29:73:e5:91:e0:
                    f1:4f:56:46:91:cf:e4:ba:97:6c:bf:89:f9:19:dc:
                    16:6b:be:32:3d:00:9b:d9:5f:41:6c:6f:49:08:c4:
                    85:38:e1:71:63:f7:3e:41:30:0c:5b:bc:1d:2e:1d:
                    0c:e2:bc:5e:d7:d0:ed:13:6b:99:53:9b:6a:82:c5:
                    98:89:7c:7d:6d:3e:49:31:98:dc:1d:ce:f6:9b:fa:
                    6e:4a:f4:ea:ee:26:16:63:94:a4:b7:48:7e:ab:19:
                    a8:12:bc:14:88:ae:fe:3e:fe:07:01:4f:6b:d4:19:
                    01:75:1e:b7:51:47:0e:5c:f1:22:01:76:eb:ee:92:
                    22:44:ec:8c:b5:db:92:b2:95:8a:43:0a:66:fd:5b:
                    d4:e3
                Exponent: 65537 (0x10001)
        X509v3 extensions:
            X509v3 Basic Constraints: 
                CA:FALSE
            X509v3 Subject Key Identifier: 
                31:45:6A:67:C6:4B:FC:29:78:B7:45:C8:5C:02:CC:BE:AD:DF:6D:48
            X509v3 Authority Key Identifier: 
                keyid:56:B3:0A:A5:E4:86:2B:28:31:08:39:6C:FE:91:9C:CD:E3:63:B9:13
                DirName:/CN=BBXN INT SV1
                serial:C8:D8:D2:05:95:23:EB:F2

            X509v3 Extended Key Usage: 
                TLS Web Client Authentication
            X509v3 Key Usage: 
                Digital Signature
            X509v3 Subject Alternative Name: 
                DNS:tgw.sv2.bbxn.us, DNS:tgw.sv2.pln.bbxn.us, IP Address:172.16.52.8
    Signature Algorithm: sha256WithRSAEncryption
         6b:2d:d0:5b:c8:88:5a:f2:c2:d3:cd:f4:fb:5a:76:78:65:d6:
         02:21:38:38:0d:9d:2d:e5:5c:07:44:26:3a:6c:74:c1:95:09:
         a1:8f:6b:90:eb:9f:64:80:09:7b:e0:e4:a2:e2:f8:7b:81:c2:
         c5:ce:4f:a4:c8:36:1e:34:a9:e4:69:74:b6:a9:d4:28:eb:c3:
         fe:0c:98:d0:cc:cc:ac:f3:58:f5:7e:64:ed:6d:c3:b0:23:69:
         b0:88:99:7e:08:b8:f0:f4:a2:04:36:7a:5e:4a:7c:f3:01:5d:
         d1:be:33:17:f5:e1:33:1e:f6:d6:d7:c5:66:6a:6d:02:da:f2:
         8a:ba:20:47:14:48:be:2e:76:f0:2a:b4:ff:19:c4:5e:ee:17:
         ba:bc:94:2c:87:5a:10:b5:2b:b9:95:76:27:d4:f7:4d:9a:b2:
         b7:49:3c:b2:33:78:14:d4:fd:99:ff:da:5b:fd:30:b0:24:45:
         53:fc:a1:28:c7:8b:0e:e7:a4:95:7e:f9:0e:8e:66:3e:d7:1b:
         6d:0b:c5:d0:89:81:9e:8b:da:14:bb:65:12:3b:b5:ac:95:1e:
         d7:83:52:16:5e:ed:36:22:be:cb:9a:14:cf:d8:b5:53:2f:bf:
         e8:1b:28:fe:13:b6:0f:13:e0:17:df:84:d4:f6:7b:c4:7b:f5:
         cc:6c:2d:9c
-----BEGIN CERTIFICATE-----
MIIDfDCCAmSgAwIBAgIBCzANBgkqhkiG9w0BAQsFADAXMRUwEwYDVQQDDAxCQlhO
IElOVCBTVjEwHhcNMTcxMjAzMDE1MzAwWhcNMjcxMjAxMDE1MzAwWjAaMRgwFgYD
VQQDDA90Z3cuc3YyLmJieG4udXMwggEiMA0GCSqGSIb3DQEBAQUAA4IBDwAwggEK
AoIBAQDlsgMFUlK93bNW+E9RQjoNkGVBwWilL691dP7NCfpF7b7lLVfe2KY0lRHc
kr42hcZmENNIXhj2W8IMSwMw6PusWKwlGvRYexFcWNAZm79cg5DcGvXWbDHsQ1TH
67qYWnjGYp8GwcnSDo6yyk15xv+BPXgpc+WR4PFPVkaRz+S6l2y/ifkZ3BZrvjI9
AJvZX0Fsb0kIxIU44XFj9z5BMAxbvB0uHQzivF7X0O0Ta5lTm2qCxZiJfH1tPkkx
mNwdzvab+m5K9OruJhZjlKS3SH6rGagSvBSIrv4+/gcBT2vUGQF1HrdRRw5c8SIB
duvukiJE7Iy125KylYpDCmb9W9TjAgMBAAGjgc8wgcwwCQYDVR0TBAIwADAdBgNV
HQ4EFgQUMUVqZ8ZL/Cl4t0XIXALMvq3fbUgwRwYDVR0jBEAwPoAUVrMKpeSGKygx
CDls/pGczeNjuROhG6QZMBcxFTATBgNVBAMMDEJCWE4gSU5UIFNWMYIJAMjY0gWV
I+vyMBMGA1UdJQQMMAoGCCsGAQUFBwMCMAsGA1UdDwQEAwIHgDA1BgNVHREELjAs
gg90Z3cuc3YyLmJieG4udXOCE3Rndy5zdjIucGxuLmJieG4udXOHBKwQNAgwDQYJ
KoZIhvcNAQELBQADggEBAGst0FvIiFrywtPN9Ptadnhl1gIhODgNnS3lXAdEJjps
dMGVCaGPa5Drn2SACXvg5KLi+HuBwsXOT6TINh40qeRpdLap1Cjrw/4MmNDMzKzz
WPV+ZO1tw7AjabCImX4IuPD0ogQ2el5KfPMBXdG+Mxf14TMe9tbXxWZqbQLa8oq6
IEcUSL4udvAqtP8ZxF7uF7q8lCyHWhC1K7mVdifU902asrdJPLIzeBTU/Zn/2lv9
MLAkRVP8oSjHiw7npJV++Q6OZj7XG20LxdCJgZ6L2hS7ZRI7tayVHteDUhZe7TYi
vsuaFM/YtVMvv+gbKP4Ttg8T4BffhNT2e8R79cxsLZw=
-----END CERTIFICATE-----
