Certificate:
    Data:
        Version: 3 (0x2)
        Serial Number: 8 (0x8)
    Signature Algorithm: sha256WithRSAEncryption
        Issuer: CN=BBXN INT SV1
        Validity
            Not Before: Nov  6 02:51:31 2017 GMT
            Not After : Nov  4 02:51:31 2027 GMT
        Subject: CN=tgw.sv1.bbxn.us
        Subject Public Key Info:
            Public Key Algorithm: rsaEncryption
                Public-Key: (2048 bit)
                Modulus:
                    00:9a:5c:18:90:02:8d:b7:fc:cd:dc:c6:ea:0c:51:
                    c7:43:4c:8b:9a:ac:cc:ba:80:49:f7:c2:ce:04:e3:
                    96:35:e3:96:aa:49:09:a1:65:32:fc:2f:08:c2:e4:
                    11:46:09:77:74:3b:6e:00:95:da:2d:c7:c9:b9:e7:
                    18:63:8c:6d:2b:02:7a:cc:36:00:85:af:d4:9b:e6:
                    9a:80:31:b0:f6:a6:2c:d6:a2:bd:42:91:43:af:01:
                    f3:3d:3e:3e:1c:d6:c2:2c:77:ed:6a:81:6b:5a:af:
                    da:6f:40:ea:e4:25:16:e0:70:38:81:1a:b1:f6:19:
                    b7:af:c5:0c:cc:8e:1c:a9:01:de:32:c7:39:19:7a:
                    5b:1e:7a:bc:7b:23:eb:4c:f0:6a:4c:c7:5e:e9:b3:
                    56:0f:56:8c:bd:ae:e5:90:e6:fc:11:62:3f:6f:46:
                    7c:e9:c2:de:62:a6:19:0a:02:33:ff:22:16:1f:c9:
                    b3:30:28:51:17:57:df:64:2a:0d:47:3a:7e:f9:c2:
                    8d:b9:1e:12:30:4e:69:1e:99:d2:79:d3:5a:13:83:
                    9a:9a:b9:8f:ea:e9:3f:84:0e:30:19:03:6a:00:06:
                    36:a9:3b:88:3d:bc:dc:44:1a:6d:cc:94:12:02:da:
                    0a:05:29:0d:ef:d6:44:cb:68:c1:dc:60:c7:86:25:
                    c2:57
                Exponent: 65537 (0x10001)
        X509v3 extensions:
            X509v3 Basic Constraints: 
                CA:FALSE
            X509v3 Subject Key Identifier: 
                C9:94:80:31:82:27:D6:00:83:20:C0:94:95:AD:BF:3A:B6:8D:06:B3
            X509v3 Authority Key Identifier: 
                keyid:56:B3:0A:A5:E4:86:2B:28:31:08:39:6C:FE:91:9C:CD:E3:63:B9:13
                DirName:/CN=BBXN INT SV1
                serial:C8:D8:D2:05:95:23:EB:F2

            X509v3 Extended Key Usage: 
                TLS Web Server Authentication
            X509v3 Key Usage: 
                Digital Signature, Key Encipherment
            X509v3 Subject Alternative Name: 
                DNS:tgw.sv1.bbxn.us, DNS:tgw.sv1.pln.bbxn.us, IP Address:172.16.52.1, IP Address:172.16.52.32
    Signature Algorithm: sha256WithRSAEncryption
         83:e5:3c:9e:02:f3:16:73:af:6a:78:9a:84:0a:97:a4:e8:cf:
         a7:7a:44:f7:02:0c:44:4c:8b:e4:59:c7:9c:4e:4a:dc:1b:0d:
         b9:e3:c8:81:44:68:8f:1c:26:ce:bb:9a:31:46:dd:a9:5e:c2:
         b8:b0:64:81:95:41:40:16:48:95:b0:f9:9a:7b:f6:2a:8a:8e:
         2a:5a:3b:c7:93:a6:87:38:97:5a:79:a2:42:ee:d2:4c:b5:43:
         0a:40:8a:32:2d:63:73:b1:c1:5d:a3:f8:34:bf:1f:f1:b8:c7:
         a7:df:2d:74:d1:a6:31:b2:3b:cb:aa:ee:13:86:4c:c7:84:29:
         9d:8a:1f:55:38:8a:21:1e:27:01:a6:fd:37:19:e8:95:22:c3:
         9c:29:f2:99:5f:10:78:f2:47:1f:56:e3:d7:e0:91:6f:4e:96:
         e9:8a:25:3c:fb:01:88:63:e6:dd:e7:b1:ea:ba:d6:85:a5:c4:
         87:5f:8b:f5:bd:36:78:2f:86:c8:3c:2c:80:a1:81:87:10:02:
         68:ad:f5:2e:e7:90:b8:7f:7e:00:52:30:da:e1:af:6c:e1:fc:
         b4:28:7d:d4:ca:55:3d:ba:c8:a1:4f:af:ca:91:31:09:3e:bb:
         ab:56:74:6b:8a:1f:8c:0f:8d:0d:00:59:81:40:58:d7:b0:43:
         2b:1a:3e:47
-----BEGIN CERTIFICATE-----
MIIDgjCCAmqgAwIBAgIBCDANBgkqhkiG9w0BAQsFADAXMRUwEwYDVQQDDAxCQlhO
IElOVCBTVjEwHhcNMTcxMTA2MDI1MTMxWhcNMjcxMTA0MDI1MTMxWjAaMRgwFgYD
VQQDDA90Z3cuc3YxLmJieG4udXMwggEiMA0GCSqGSIb3DQEBAQUAA4IBDwAwggEK
AoIBAQCaXBiQAo23/M3cxuoMUcdDTIuarMy6gEn3ws4E45Y145aqSQmhZTL8LwjC
5BFGCXd0O24Aldotx8m55xhjjG0rAnrMNgCFr9Sb5pqAMbD2pizWor1CkUOvAfM9
Pj4c1sIsd+1qgWtar9pvQOrkJRbgcDiBGrH2GbevxQzMjhypAd4yxzkZelseerx7
I+tM8GpMx17ps1YPVoy9ruWQ5vwRYj9vRnzpwt5iphkKAjP/IhYfybMwKFEXV99k
Kg1HOn75wo25HhIwTmkemdJ501oTg5qauY/q6T+EDjAZA2oABjapO4g9vNxEGm3M
lBIC2goFKQ3v1kTLaMHcYMeGJcJXAgMBAAGjgdUwgdIwCQYDVR0TBAIwADAdBgNV
HQ4EFgQUyZSAMYIn1gCDIMCUla2/OraNBrMwRwYDVR0jBEAwPoAUVrMKpeSGKygx
CDls/pGczeNjuROhG6QZMBcxFTATBgNVBAMMDEJCWE4gSU5UIFNWMYIJAMjY0gWV
I+vyMBMGA1UdJQQMMAoGCCsGAQUFBwMBMAsGA1UdDwQEAwIFoDA7BgNVHREENDAy
gg90Z3cuc3YxLmJieG4udXOCE3Rndy5zdjEucGxuLmJieG4udXOHBKwQNAGHBKwQ
NCAwDQYJKoZIhvcNAQELBQADggEBAIPlPJ4C8xZzr2p4moQKl6Toz6d6RPcCDERM
i+RZx5xOStwbDbnjyIFEaI8cJs67mjFG3alewriwZIGVQUAWSJWw+Zp79iqKjipa
O8eTpoc4l1p5okLu0ky1QwpAijItY3OxwV2j+DS/H/G4x6ffLXTRpjGyO8uq7hOG
TMeEKZ2KH1U4iiEeJwGm/TcZ6JUiw5wp8plfEHjyRx9W49fgkW9OlumKJTz7AYhj
5t3nseq61oWlxIdfi/W9Nngvhsg8LIChgYcQAmit9S7nkLh/fgBSMNrhr2zh/LQo
fdTKVT26yKFPr8qRMQk+u6tWdGuKH4wPjQ0AWYFAWNewQysaPkc=
-----END CERTIFICATE-----
