Certificate:
    Data:
        Version: 3 (0x2)
        Serial Number: 9 (0x9)
    Signature Algorithm: sha256WithRSAEncryption
        Issuer: CN=BBXN INT SV1
        Validity
            Not Before: Nov  6 02:52:38 2017 GMT
            Not After : Nov  4 02:52:38 2027 GMT
        Subject: CN=tgw.sv2.bbxn.us
        Subject Public Key Info:
            Public Key Algorithm: rsaEncryption
                Public-Key: (2048 bit)
                Modulus:
                    00:e0:50:07:23:3a:f4:27:e2:4f:a6:a0:12:dd:2a:
                    49:c3:72:22:34:ac:42:87:6d:d0:d1:fc:0e:cf:26:
                    27:cf:38:e2:69:80:29:9f:74:71:43:ea:30:0b:35:
                    fd:09:29:d4:d0:b8:ce:6f:a7:c8:51:40:83:a3:71:
                    d3:a3:06:16:c0:83:fc:b8:cd:7c:6c:c1:0b:6b:d7:
                    ad:94:a9:66:c5:28:43:9c:49:a5:e1:3c:00:d9:a6:
                    27:b8:84:af:3c:ae:86:c1:f0:c4:36:70:5d:f6:36:
                    a3:fc:c1:2c:e2:f2:eb:ca:ce:ef:a7:7c:04:25:0f:
                    6e:25:80:8e:fb:2d:64:ff:e1:e7:7e:cf:ab:bb:7f:
                    15:a8:69:ec:e3:f6:18:5c:bd:f7:91:93:eb:c1:c5:
                    62:6b:52:95:e3:1d:2c:b4:ee:79:b8:51:cc:fb:7e:
                    24:68:ec:f8:7c:ea:f7:0b:ba:51:ef:7e:f4:ff:0e:
                    f4:01:69:4c:56:da:3f:af:d1:7a:d5:78:57:ca:fe:
                    05:34:23:24:af:57:3a:d4:d8:6c:d8:7b:89:73:e0:
                    c3:fd:b1:3c:73:4e:28:90:43:09:9e:05:a8:76:30:
                    af:b5:08:68:9f:c2:72:6b:04:7e:ce:98:15:1f:ea:
                    4b:a6:71:fd:c8:4b:f6:e2:f0:61:c2:49:59:93:cf:
                    4b:8f
                Exponent: 65537 (0x10001)
        X509v3 extensions:
            X509v3 Basic Constraints: 
                CA:FALSE
            X509v3 Subject Key Identifier: 
                82:7A:56:27:83:88:5D:37:EA:25:FC:17:B8:B9:D5:2E:48:EE:4B:FD
            X509v3 Authority Key Identifier: 
                keyid:56:B3:0A:A5:E4:86:2B:28:31:08:39:6C:FE:91:9C:CD:E3:63:B9:13
                DirName:/CN=BBXN INT SV1
                serial:C8:D8:D2:05:95:23:EB:F2

            X509v3 Extended Key Usage: 
                TLS Web Server Authentication
            X509v3 Key Usage: 
                Digital Signature, Key Encipherment
            X509v3 Subject Alternative Name: 
                DNS:tgw.sv2.bbxn.us, DNS:tgw.sv2.pln.bbxn.us, IP Address:172.16.52.8
    Signature Algorithm: sha256WithRSAEncryption
         01:d3:dc:a3:5c:d4:da:a9:74:f7:d4:45:09:70:7f:15:12:68:
         05:4a:d9:b4:24:67:f2:f7:d5:d1:bd:1b:4d:f6:5b:c4:ef:b3:
         1d:54:cb:2f:54:17:44:c5:de:33:b3:37:97:5c:b7:44:3c:eb:
         4a:61:64:ce:fd:6d:56:eb:26:64:68:6f:2b:29:a3:d6:47:fb:
         f1:61:3c:b5:2e:b9:8d:83:44:6d:49:40:9e:14:eb:78:67:07:
         1d:0b:81:eb:48:40:b6:84:59:5d:1b:f5:21:0b:17:3d:85:6f:
         16:6b:1e:14:c7:ba:53:a7:6a:b7:fb:09:33:22:39:bd:50:bd:
         86:07:be:86:40:51:81:f2:30:6b:75:72:ab:63:e9:2b:d5:1f:
         1c:ff:8d:22:6c:74:67:cf:2f:78:ff:7d:7a:71:b3:9d:3f:a8:
         91:33:6e:a1:74:63:ef:b4:ea:8a:a3:ba:4c:91:5e:e0:f7:57:
         77:d1:01:f7:26:15:30:b4:36:7c:fb:0a:d5:da:95:ea:23:04:
         fd:64:bd:a3:95:6d:f5:94:78:ef:69:f0:74:1b:5e:95:6d:56:
         d4:45:73:1e:35:d8:64:47:50:5d:1a:0d:b4:82:83:5c:0c:4c:
         1a:d9:03:c1:51:ab:c5:de:bc:4e:a6:c6:ff:5c:61:f0:e0:41:
         78:47:3b:6c
-----BEGIN CERTIFICATE-----
MIIDfDCCAmSgAwIBAgIBCTANBgkqhkiG9w0BAQsFADAXMRUwEwYDVQQDDAxCQlhO
IElOVCBTVjEwHhcNMTcxMTA2MDI1MjM4WhcNMjcxMTA0MDI1MjM4WjAaMRgwFgYD
VQQDDA90Z3cuc3YyLmJieG4udXMwggEiMA0GCSqGSIb3DQEBAQUAA4IBDwAwggEK
AoIBAQDgUAcjOvQn4k+moBLdKknDciI0rEKHbdDR/A7PJifPOOJpgCmfdHFD6jAL
Nf0JKdTQuM5vp8hRQIOjcdOjBhbAg/y4zXxswQtr162UqWbFKEOcSaXhPADZpie4
hK88robB8MQ2cF32NqP8wSzi8uvKzu+nfAQlD24lgI77LWT/4ed+z6u7fxWoaezj
9hhcvfeRk+vBxWJrUpXjHSy07nm4Ucz7fiRo7Ph86vcLulHvfvT/DvQBaUxW2j+v
0XrVeFfK/gU0IySvVzrU2GzYe4lz4MP9sTxzTiiQQwmeBah2MK+1CGifwnJrBH7O
mBUf6kumcf3IS/bi8GHCSVmTz0uPAgMBAAGjgc8wgcwwCQYDVR0TBAIwADAdBgNV
HQ4EFgQUgnpWJ4OIXTfqJfwXuLnVLkjuS/0wRwYDVR0jBEAwPoAUVrMKpeSGKygx
CDls/pGczeNjuROhG6QZMBcxFTATBgNVBAMMDEJCWE4gSU5UIFNWMYIJAMjY0gWV
I+vyMBMGA1UdJQQMMAoGCCsGAQUFBwMBMAsGA1UdDwQEAwIFoDA1BgNVHREELjAs
gg90Z3cuc3YyLmJieG4udXOCE3Rndy5zdjIucGxuLmJieG4udXOHBKwQNAgwDQYJ
KoZIhvcNAQELBQADggEBAAHT3KNc1NqpdPfURQlwfxUSaAVK2bQkZ/L31dG9G032
W8Tvsx1Uyy9UF0TF3jOzN5dct0Q860phZM79bVbrJmRobyspo9ZH+/FhPLUuuY2D
RG1JQJ4U63hnBx0LgetIQLaEWV0b9SELFz2FbxZrHhTHulOnarf7CTMiOb1QvYYH
voZAUYHyMGt1cqtj6SvVHxz/jSJsdGfPL3j/fXpxs50/qJEzbqF0Y++06oqjukyR
XuD3V3fRAfcmFTC0Nnz7CtXaleojBP1kvaOVbfWUeO9p8HQbXpVtVtRFcx412GRH
UF0aDbSCg1wMTBrZA8FRq8XevE6mxv9cYfDgQXhHO2w=
-----END CERTIFICATE-----
